target datalayout = "e-m:e-p270:32:32-p271:32:32-p272:64:64-i64:64-i128:128-f80:128-n8:16:32:64-S128"
target triple = "x86_64-unknown-linux-gnu"

%"class.std::__cxx11::basic_string" = type { %"struct.std::__cxx11::basic_string<char>::_Alloc_hider", i64, %union.anon.0 }
%"struct.std::__cxx11::basic_string<char>::_Alloc_hider" = type { ptr }
%union.anon.0 = type { i64, [8 x i8] }
%"class.std::filesystem::__cxx11::path" = type { %"class.std::__cxx11::basic_string", %"struct.std::filesystem::__cxx11::path::_List" }
%"struct.std::filesystem::__cxx11::path::_List" = type { %"class.std::unique_ptr" }
%"class.std::unique_ptr" = type { %"struct.std::__uniq_ptr_data" }
%"struct.std::__uniq_ptr_data" = type { %"class.std::__uniq_ptr_impl" }
%"class.std::__uniq_ptr_impl" = type { %"class.std::tuple" }
%"class.std::tuple" = type { %"struct.std::_Tuple_impl" }
%"struct.std::_Tuple_impl" = type { %"struct.std::_Head_base.2" }
%"struct.std::_Head_base.2" = type { ptr }
%"class.OpenImageIO_v2_6_0::basic_string_view" = type { ptr, i64 }
%"class.std::error_code" = type { i32, ptr }
%"class.std::filesystem::file_status" = type { i8, i32 }

; Function Attrs: mustprogress nounwind uwtable
define linkonce_odr noundef nonnull align 1 dereferenceable(1) ptr @_ZNSt10_Head_baseILm1ENSt10filesystem7__cxx114path5_List13_Impl_deleterELb1EE7_M_headERS5_(ptr noundef nonnull align 1 dereferenceable(1) %__b) #4 comdat align 2 {
entry:
  %__b.addr = alloca ptr, align 8
  store ptr %__b, ptr %__b.addr, align 8
  %0 = load ptr, ptr %__b.addr, align 8
  ret ptr %0
}

; Function Attrs: mustprogress nounwind uwtable
define linkonce_odr noundef nonnull align 1 dereferenceable(1) ptr @_ZNSt11_Tuple_implILm1EJNSt10filesystem7__cxx114path5_List13_Impl_deleterEEE7_M_headERS5_(ptr noundef nonnull align 1 dereferenceable(1) %__t) #4 comdat align 2 {
entry:
  %__t.addr = alloca ptr, align 8
  store ptr %__t, ptr %__t.addr, align 8
  %0 = load ptr, ptr %__t.addr, align 8
  %call = call noundef nonnull align 1 dereferenceable(1) ptr @_ZNSt10_Head_baseILm1ENSt10filesystem7__cxx114path5_List13_Impl_deleterELb1EE7_M_headERS5_(ptr noundef nonnull align 1 dereferenceable(1) %0) #3
  ret ptr %call
}

; Function Attrs: mustprogress nounwind uwtable
define linkonce_odr noundef nonnull align 8 dereferenceable(8) ptr @_ZNSt10_Head_baseILm0EPNSt10filesystem7__cxx114path5_List5_ImplELb0EE7_M_headERS6_(ptr noundef nonnull align 8 dereferenceable(8) %__b) #4 comdat align 2 {
entry:
  %__b.addr = alloca ptr, align 8
  store ptr %__b, ptr %__b.addr, align 8
  %0 = load ptr, ptr %__b.addr, align 8
  %_M_head_impl = getelementptr inbounds %"struct.std::_Head_base.2", ptr %0, i32 0, i32 0
  ret ptr %_M_head_impl
}

; Function Attrs: mustprogress nounwind uwtable
define linkonce_odr noundef nonnull align 1 dereferenceable(1) ptr @_ZSt12__get_helperILm1ENSt10filesystem7__cxx114path5_List13_Impl_deleterEJEERT0_RSt11_Tuple_implIXT_EJS5_DpT1_EE(ptr noundef nonnull align 1 dereferenceable(1) %__t) #4 comdat {
entry:
  %__t.addr = alloca ptr, align 8
  store ptr %__t, ptr %__t.addr, align 8
  %0 = load ptr, ptr %__t.addr, align 8
  %call = call noundef nonnull align 1 dereferenceable(1) ptr @_ZNSt11_Tuple_implILm1EJNSt10filesystem7__cxx114path5_List13_Impl_deleterEEE7_M_headERS5_(ptr noundef nonnull align 1 dereferenceable(1) %0) #3
  ret ptr %call
}

; Function Attrs: mustprogress nounwind uwtable
define linkonce_odr noundef nonnull align 8 dereferenceable(8) ptr @_ZNSt11_Tuple_implILm0EJPNSt10filesystem7__cxx114path5_List5_ImplENS3_13_Impl_deleterEEE7_M_headERS7_(ptr noundef nonnull align 8 dereferenceable(8) %__t) #4 comdat align 2 {
entry:
  %__t.addr = alloca ptr, align 8
  store ptr %__t, ptr %__t.addr, align 8
  %0 = load ptr, ptr %__t.addr, align 8
  %call = call noundef nonnull align 8 dereferenceable(8) ptr @_ZNSt10_Head_baseILm0EPNSt10filesystem7__cxx114path5_List5_ImplELb0EE7_M_headERS6_(ptr noundef nonnull align 8 dereferenceable(8) %0) #3
  ret ptr %call
}

; Function Attrs: mustprogress nounwind uwtable
define linkonce_odr noundef nonnull align 1 dereferenceable(1) ptr @_ZSt3getILm1EJPNSt10filesystem7__cxx114path5_List5_ImplENS3_13_Impl_deleterEEERNSt13tuple_elementIXT_ESt5tupleIJDpT0_EEE4typeERSB_(ptr noundef nonnull align 8 dereferenceable(8) %__t) #4 comdat {
entry:
  %__t.addr = alloca ptr, align 8
  store ptr %__t, ptr %__t.addr, align 8
  %0 = load ptr, ptr %__t.addr, align 8
  %call = call noundef nonnull align 1 dereferenceable(1) ptr @_ZSt12__get_helperILm1ENSt10filesystem7__cxx114path5_List13_Impl_deleterEJEERT0_RSt11_Tuple_implIXT_EJS5_DpT1_EE(ptr noundef nonnull align 1 dereferenceable(1) %0) #3
  ret ptr %call
}

; Function Attrs: mustprogress nounwind uwtable
define linkonce_odr noundef nonnull align 8 dereferenceable(8) ptr @_ZSt12__get_helperILm0EPNSt10filesystem7__cxx114path5_List5_ImplEJNS3_13_Impl_deleterEEERT0_RSt11_Tuple_implIXT_EJS7_DpT1_EE(ptr noundef nonnull align 8 dereferenceable(8) %__t) #4 comdat {
entry:
  %__t.addr = alloca ptr, align 8
  store ptr %__t, ptr %__t.addr, align 8
  %0 = load ptr, ptr %__t.addr, align 8
  %call = call noundef nonnull align 8 dereferenceable(8) ptr @_ZNSt11_Tuple_implILm0EJPNSt10filesystem7__cxx114path5_List5_ImplENS3_13_Impl_deleterEEE7_M_headERS7_(ptr noundef nonnull align 8 dereferenceable(8) %0) #3
  ret ptr %call
}

; Function Attrs: mustprogress nounwind uwtable
define linkonce_odr noundef nonnull align 1 dereferenceable(1) ptr @_ZNSt15__uniq_ptr_implINSt10filesystem7__cxx114path5_List5_ImplENS3_13_Impl_deleterEE10_M_deleterEv(ptr noundef nonnull align 8 dereferenceable(8) %this) #4 comdat align 2 {
entry:
  %this.addr = alloca ptr, align 8
  store ptr %this, ptr %this.addr, align 8
  %this1 = load ptr, ptr %this.addr, align 8
  %_M_t = getelementptr inbounds %"class.std::__uniq_ptr_impl", ptr %this1, i32 0, i32 0
  %call = call noundef nonnull align 1 dereferenceable(1) ptr @_ZSt3getILm1EJPNSt10filesystem7__cxx114path5_List5_ImplENS3_13_Impl_deleterEEERNSt13tuple_elementIXT_ESt5tupleIJDpT0_EEE4typeERSB_(ptr noundef nonnull align 8 dereferenceable(8) %_M_t) #3
  ret ptr %call
}

; Function Attrs: mustprogress nounwind uwtable
define linkonce_odr noundef nonnull align 8 dereferenceable(8) ptr @_ZSt3getILm0EJPNSt10filesystem7__cxx114path5_List5_ImplENS3_13_Impl_deleterEEERNSt13tuple_elementIXT_ESt5tupleIJDpT0_EEE4typeERSB_(ptr noundef nonnull align 8 dereferenceable(8) %__t) #4 comdat {
entry:
  %__t.addr = alloca ptr, align 8
  store ptr %__t, ptr %__t.addr, align 8
  %0 = load ptr, ptr %__t.addr, align 8
  %call = call noundef nonnull align 8 dereferenceable(8) ptr @_ZSt12__get_helperILm0EPNSt10filesystem7__cxx114path5_List5_ImplEJNS3_13_Impl_deleterEEERT0_RSt11_Tuple_implIXT_EJS7_DpT1_EE(ptr noundef nonnull align 8 dereferenceable(8) %0) #3
  ret ptr %call
}

; Function Attrs: mustprogress nounwind uwtable
define linkonce_odr noundef nonnull align 1 dereferenceable(1) ptr @_ZNSt10unique_ptrINSt10filesystem7__cxx114path5_List5_ImplENS3_13_Impl_deleterEE11get_deleterEv(ptr noundef nonnull align 8 dereferenceable(8) %this) #4 comdat align 2 {
entry:
  %this.addr = alloca ptr, align 8
  store ptr %this, ptr %this.addr, align 8
  %this1 = load ptr, ptr %this.addr, align 8
  %_M_t = getelementptr inbounds %"class.std::unique_ptr", ptr %this1, i32 0, i32 0
  %call = call noundef nonnull align 1 dereferenceable(1) ptr @_ZNSt15__uniq_ptr_implINSt10filesystem7__cxx114path5_List5_ImplENS3_13_Impl_deleterEE10_M_deleterEv(ptr noundef nonnull align 8 dereferenceable(8) %_M_t) #3
  ret ptr %call
}

; Function Attrs: mustprogress nounwind uwtable
define linkonce_odr noundef nonnull align 8 dereferenceable(8) ptr @_ZNSt15__uniq_ptr_implINSt10filesystem7__cxx114path5_List5_ImplENS3_13_Impl_deleterEE6_M_ptrEv(ptr noundef nonnull align 8 dereferenceable(8) %this) #4 comdat align 2 {
entry:
  %this.addr = alloca ptr, align 8
  store ptr %this, ptr %this.addr, align 8
  %this1 = load ptr, ptr %this.addr, align 8
  %_M_t = getelementptr inbounds %"class.std::__uniq_ptr_impl", ptr %this1, i32 0, i32 0
  %call = call noundef nonnull align 8 dereferenceable(8) ptr @_ZSt3getILm0EJPNSt10filesystem7__cxx114path5_List5_ImplENS3_13_Impl_deleterEEERNSt13tuple_elementIXT_ESt5tupleIJDpT0_EEE4typeERSB_(ptr noundef nonnull align 8 dereferenceable(8) %_M_t) #3
  ret ptr %call
}

; Function Attrs: mustprogress nounwind uwtable
define linkonce_odr void @_ZNSt10unique_ptrINSt10filesystem7__cxx114path5_List5_ImplENS3_13_Impl_deleterEED2Ev(ptr noundef nonnull align 8 dereferenceable(8) %this) unnamed_addr #4 comdat align 2 {
entry:
  %this.addr = alloca ptr, align 8
  %__ptr = alloca ptr, align 8
  store ptr %this, ptr %this.addr, align 8
  %this1 = load ptr, ptr %this.addr, align 8
  %_M_t = getelementptr inbounds %"class.std::unique_ptr", ptr %this1, i32 0, i32 0
  %call = call noundef nonnull align 8 dereferenceable(8) ptr @_ZNSt15__uniq_ptr_implINSt10filesystem7__cxx114path5_List5_ImplENS3_13_Impl_deleterEE6_M_ptrEv(ptr noundef nonnull align 8 dereferenceable(8) %_M_t) #3
  store ptr %call, ptr %__ptr, align 8
  %0 = load ptr, ptr %__ptr, align 8
  %1 = load ptr, ptr %0, align 8
  %cmp = icmp ne ptr %1, null
  br i1 %cmp, label %if.then, label %if.end

if.then:                                          ; preds = %entry
  %call2 = call noundef nonnull align 1 dereferenceable(1) ptr @_ZNSt10unique_ptrINSt10filesystem7__cxx114path5_List5_ImplENS3_13_Impl_deleterEE11get_deleterEv(ptr noundef nonnull align 8 dereferenceable(8) %this1) #3
  %2 = load ptr, ptr %__ptr, align 8
  %3 = load ptr, ptr %2, align 8
  call void @_ZNKSt10filesystem7__cxx114path5_List13_Impl_deleterclEPNS2_5_ImplE(ptr noundef nonnull align 1 dereferenceable(1) %call2, ptr noundef %3) #3
  br label %if.end

if.end:                                           ; preds = %if.then, %entry
  %4 = load ptr, ptr %__ptr, align 8
  store ptr null, ptr %4, align 8
  ret void
}

; Function Attrs: mustprogress nounwind uwtable
define linkonce_odr void @_ZNSt10error_code6assignEiRKNSt3_V214error_categoryE(ptr noundef nonnull align 8 dereferenceable(16) %this, i32 noundef %__v, ptr noundef nonnull align 8 dereferenceable(8) %__cat) #4 comdat align 2 {
entry:
  %this.addr = alloca ptr, align 8
  %__v.addr = alloca i32, align 4
  %__cat.addr = alloca ptr, align 8
  store ptr %this, ptr %this.addr, align 8
  store i32 %__v, ptr %__v.addr, align 4
  store ptr %__cat, ptr %__cat.addr, align 8
  %this1 = load ptr, ptr %this.addr, align 8
  %0 = load i32, ptr %__v.addr, align 4
  %_M_value = getelementptr inbounds %"class.std::error_code", ptr %this1, i32 0, i32 0
  store i32 %0, ptr %_M_value, align 8
  %1 = load ptr, ptr %__cat.addr, align 8
  %_M_cat = getelementptr inbounds %"class.std::error_code", ptr %this1, i32 0, i32 1
  store ptr %1, ptr %_M_cat, align 8
  ret void
}

; Function Attrs: mustprogress nounwind uwtable
define linkonce_odr void @_ZNSt10filesystem7__cxx114path5_ListD2Ev(ptr noundef nonnull align 8 dereferenceable(8) %this) unnamed_addr #4 comdat align 2 {
entry:
  %this.addr = alloca ptr, align 8
  store ptr %this, ptr %this.addr, align 8
  %this1 = load ptr, ptr %this.addr, align 8
  %_M_impl = getelementptr inbounds %"struct.std::filesystem::__cxx11::path::_List", ptr %this1, i32 0, i32 0
  call void @_ZNSt10unique_ptrINSt10filesystem7__cxx114path5_List5_ImplENS3_13_Impl_deleterEED2Ev(ptr noundef nonnull align 8 dereferenceable(8) %_M_impl) #3
  ret void
}

; Function Attrs: mustprogress nounwind uwtable
define linkonce_odr noundef signext i8 @_ZNKSt10filesystem11file_status4typeEv(ptr noundef nonnull align 4 dereferenceable(8) %this) #4 comdat align 2 {
entry:
  %this.addr = alloca ptr, align 8
  store ptr %this, ptr %this.addr, align 8
  %this1 = load ptr, ptr %this.addr, align 8
  %_M_type = getelementptr inbounds %"class.std::filesystem::file_status", ptr %this1, i32 0, i32 0
  %0 = load i8, ptr %_M_type, align 4
  ret i8 %0
}

; Function Attrs: mustprogress nounwind uwtable
define linkonce_odr void @_ZNSt10error_code5clearEv(ptr noundef nonnull align 8 dereferenceable(16) %this) #4 comdat align 2 {
entry:
  %this.addr = alloca ptr, align 8
  store ptr %this, ptr %this.addr, align 8
  %this1 = load ptr, ptr %this.addr, align 8
  %call = call noundef nonnull align 8 dereferenceable(8) ptr @_ZNSt3_V215system_categoryEv() #22
  call void @_ZNSt10error_code6assignEiRKNSt3_V214error_categoryE(ptr noundef nonnull align 8 dereferenceable(16) %this1, i32 noundef 0, ptr noundef nonnull align 8 dereferenceable(8) %call) #3
  ret void
}

; Function Attrs: mustprogress nounwind uwtable
define linkonce_odr noundef zeroext i1 @_ZNSt10filesystem12status_knownENS_11file_statusE(i64 %__s.coerce) #4 comdat {
entry:
  %__s = alloca %"class.std::filesystem::file_status", align 4
  store i64 %__s.coerce, ptr %__s, align 4
  %call = call noundef signext i8 @_ZNKSt10filesystem11file_status4typeEv(ptr noundef nonnull align 4 dereferenceable(8) %__s) #3
  %cmp = icmp ne i8 %call, 0
  ret i1 %cmp
}

; Function Attrs: mustprogress nounwind uwtable
define linkonce_odr hidden noundef ptr @_ZNK18OpenImageIO_v2_6_017basic_string_viewIcSt11char_traitsIcEE3endEv(ptr noundef nonnull align 8 dereferenceable(16) %this) #4 comdat align 2 {
entry:
  %this.addr = alloca ptr, align 8
  store ptr %this, ptr %this.addr, align 8
  %this1 = load ptr, ptr %this.addr, align 8
  %m_chars = getelementptr inbounds %"class.OpenImageIO_v2_6_0::basic_string_view", ptr %this1, i32 0, i32 0
  %0 = load ptr, ptr %m_chars, align 8
  %m_len = getelementptr inbounds %"class.OpenImageIO_v2_6_0::basic_string_view", ptr %this1, i32 0, i32 1
  %1 = load i64, ptr %m_len, align 8
  %add.ptr = getelementptr inbounds i8, ptr %0, i64 %1
  ret ptr %add.ptr
}

; Function Attrs: mustprogress nounwind uwtable
define linkonce_odr hidden noundef ptr @_ZNK18OpenImageIO_v2_6_017basic_string_viewIcSt11char_traitsIcEE5beginEv(ptr noundef nonnull align 8 dereferenceable(16) %this) #4 comdat align 2 {
entry:
  %this.addr = alloca ptr, align 8
  store ptr %this, ptr %this.addr, align 8
  %this1 = load ptr, ptr %this.addr, align 8
  %m_chars = getelementptr inbounds %"class.OpenImageIO_v2_6_0::basic_string_view", ptr %this1, i32 0, i32 0
  %0 = load ptr, ptr %m_chars, align 8
  ret ptr %0
}

; Function Attrs: mustprogress nounwind uwtable
define linkonce_odr hidden noundef i64 @_ZNK18OpenImageIO_v2_6_017basic_string_viewIcSt11char_traitsIcEE4sizeEv(ptr noundef nonnull align 8 dereferenceable(16) %this) #4 comdat align 2 {
entry:
  %this.addr = alloca ptr, align 8
  store ptr %this, ptr %this.addr, align 8
  %this1 = load ptr, ptr %this.addr, align 8
  %m_len = getelementptr inbounds %"class.OpenImageIO_v2_6_0::basic_string_view", ptr %this1, i32 0, i32 1
  %0 = load i64, ptr %m_len, align 8
  ret i64 %0
}

; Function Attrs: mustprogress nounwind uwtable
define linkonce_odr hidden noundef ptr @_ZNK18OpenImageIO_v2_6_017basic_string_viewIcSt11char_traitsIcEE4dataEv(ptr noundef nonnull align 8 dereferenceable(16) %this) #4 comdat align 2 {
entry:
  %this.addr = alloca ptr, align 8
  store ptr %this, ptr %this.addr, align 8
  %this1 = load ptr, ptr %this.addr, align 8
  %m_chars = getelementptr inbounds %"class.OpenImageIO_v2_6_0::basic_string_view", ptr %this1, i32 0, i32 0
  %0 = load ptr, ptr %m_chars, align 8
  ret ptr %0
}

; Function Attrs: mustprogress nounwind uwtable
define linkonce_odr void @_ZNSt10filesystem7__cxx114pathD2Ev(ptr noundef nonnull align 8 dereferenceable(40) %this) unnamed_addr #4 comdat align 2 {
entry:
  %this.addr = alloca ptr, align 8
  store ptr %this, ptr %this.addr, align 8
  %this1 = load ptr, ptr %this.addr, align 8
  %_M_cmpts = getelementptr inbounds %"class.std::filesystem::__cxx11::path", ptr %this1, i32 0, i32 1
  call void @_ZNSt10filesystem7__cxx114path5_ListD2Ev(ptr noundef nonnull align 8 dereferenceable(8) %_M_cmpts) #3
  %_M_pathname = getelementptr inbounds %"class.std::filesystem::__cxx11::path", ptr %this1, i32 0, i32 0
  call void @_ZNSt7__cxx1112basic_stringIcSt11char_traitsIcESaIcEED1Ev(ptr noundef nonnull align 8 dereferenceable(32) %_M_pathname) #3
  ret void
}

; Function Attrs: mustprogress nounwind uwtable
define linkonce_odr noundef zeroext i1 @_ZNSt10filesystem6existsERKNS_7__cxx114pathERSt10error_code(ptr noundef nonnull align 8 dereferenceable(40) %__p, ptr noundef nonnull align 8 dereferenceable(16) %__ec) #4 comdat {
entry:
  %retval = alloca i1, align 1
  %__p.addr = alloca ptr, align 8
  %__ec.addr = alloca ptr, align 8
  %__s = alloca %"class.std::filesystem::file_status", align 4
  %agg.tmp = alloca %"class.std::filesystem::file_status", align 4
  store ptr %__p, ptr %__p.addr, align 8
  store ptr %__ec, ptr %__ec.addr, align 8
  %0 = load ptr, ptr %__p.addr, align 8
  %1 = load ptr, ptr %__ec.addr, align 8
  %call = call i64 @_ZNSt10filesystem6statusERKNS_7__cxx114pathERSt10error_code(ptr noundef nonnull align 8 dereferenceable(40) %0, ptr noundef nonnull align 8 dereferenceable(16) %1) #3
  store i64 %call, ptr %__s, align 4
  call void @llvm.memcpy.p0.p0.i64(ptr align 4 %agg.tmp, ptr align 4 %__s, i64 8, i1 false)
  %2 = load i64, ptr %agg.tmp, align 4
  %call1 = call noundef zeroext i1 @_ZNSt10filesystem12status_knownENS_11file_statusE(i64 %2) #3
  br i1 %call1, label %if.then, label %if.end

if.then:                                          ; preds = %entry
  %3 = load ptr, ptr %__ec.addr, align 8
  call void @_ZNSt10error_code5clearEv(ptr noundef nonnull align 8 dereferenceable(16) %3) #3
  %call2 = call noundef signext i8 @_ZNKSt10filesystem11file_status4typeEv(ptr noundef nonnull align 4 dereferenceable(8) %__s) #3
  %cmp = icmp ne i8 %call2, -1
  store i1 %cmp, ptr %retval, align 1
  br label %return

if.end:                                           ; preds = %entry
  store i1 false, ptr %retval, align 1
  br label %return

return:                                           ; preds = %if.end, %if.then
  %4 = load i1, ptr %retval, align 1
  ret i1 %4
}

; Function Attrs: mustprogress uwtable
define linkonce_odr hidden void @_ZN18OpenImageIO_v2_6_06u8pathB5cxx11ENS_17basic_string_viewIcSt11char_traitsIcEEE(ptr noalias sret(%"class.std::filesystem::__cxx11::path") align 8 %agg.result, ptr noundef %name) #6 comdat {
entry:
  %result.ptr = alloca ptr, align 8
  %name.indirect_addr = alloca ptr, align 8
  store ptr %agg.result, ptr %result.ptr, align 8
  store ptr %name, ptr %name.indirect_addr, align 8
  %call = call noundef ptr @_ZNK18OpenImageIO_v2_6_017basic_string_viewIcSt11char_traitsIcEE5beginEv(ptr noundef nonnull align 8 dereferenceable(16) %name) #3
  %call1 = call noundef ptr @_ZNK18OpenImageIO_v2_6_017basic_string_viewIcSt11char_traitsIcEE3endEv(ptr noundef nonnull align 8 dereferenceable(16) %name) #3
  call void @_ZNSt10filesystem7__cxx114pathC2IPKcS1_EET_S5_NS1_6formatE(ptr noundef nonnull align 8 dereferenceable(40) %agg.result, ptr noundef %call, ptr noundef %call1, i8 noundef zeroext 2)
  ret void
}

; Function Attrs: mustprogress nounwind uwtable
define linkonce_odr hidden void @_ZN18OpenImageIO_v2_6_017basic_string_viewIcSt11char_traitsIcEEC2ERKS3_(ptr noundef nonnull align 8 dereferenceable(16) %this, ptr noundef nonnull align 8 dereferenceable(16) %copy) unnamed_addr #4 comdat align 2 {
entry:
  %this.addr = alloca ptr, align 8
  %copy.addr = alloca ptr, align 8
  store ptr %this, ptr %this.addr, align 8
  store ptr %copy, ptr %copy.addr, align 8
  %this1 = load ptr, ptr %this.addr, align 8
  %m_chars = getelementptr inbounds %"class.OpenImageIO_v2_6_0::basic_string_view", ptr %this1, i32 0, i32 0
  %0 = load ptr, ptr %copy.addr, align 8
  %call = call noundef ptr @_ZNK18OpenImageIO_v2_6_017basic_string_viewIcSt11char_traitsIcEE4dataEv(ptr noundef nonnull align 8 dereferenceable(16) %0) #3
  store ptr %call, ptr %m_chars, align 8
  %m_len = getelementptr inbounds %"class.OpenImageIO_v2_6_0::basic_string_view", ptr %this1, i32 0, i32 1
  %1 = load ptr, ptr %copy.addr, align 8
  %call2 = call noundef i64 @_ZNK18OpenImageIO_v2_6_017basic_string_viewIcSt11char_traitsIcEE4sizeEv(ptr noundef nonnull align 8 dereferenceable(16) %1) #3
  store i64 %call2, ptr %m_len, align 8
  ret void
}

; Function Attrs: mustprogress nounwind uwtable
define linkonce_odr void @_ZNSt10error_codeC2Ev(ptr noundef nonnull align 8 dereferenceable(16) %this) unnamed_addr #4 comdat align 2 {
entry:
  %this.addr = alloca ptr, align 8
  store ptr %this, ptr %this.addr, align 8
  %this1 = load ptr, ptr %this.addr, align 8
  %_M_value = getelementptr inbounds %"class.std::error_code", ptr %this1, i32 0, i32 0
  store i32 0, ptr %_M_value, align 8
  %_M_cat = getelementptr inbounds %"class.std::error_code", ptr %this1, i32 0, i32 1
  %call = call noundef nonnull align 8 dereferenceable(8) ptr @_ZNSt3_V215system_categoryEv() #22
  store ptr %call, ptr %_M_cat, align 8
  ret void
}

; Function Attrs: mustprogress nounwind uwtable
define noundef zeroext i1 @_ZN18OpenImageIO_v2_6_010Filesystem6existsENS_17basic_string_viewIcSt11char_traitsIcEEE(ptr noundef %path) #4 personality ptr @__gxx_personality_v0 {
entry:
  %path.indirect_addr = alloca ptr, align 8
  %ec = alloca %"class.std::error_code", align 8
  %ref.tmp = alloca %"class.std::filesystem::__cxx11::path", align 8
  %agg.tmp = alloca %"class.OpenImageIO_v2_6_0::basic_string_view", align 8
  store ptr %path, ptr %path.indirect_addr, align 8
  call void @_ZNSt10error_codeC2Ev(ptr noundef nonnull align 8 dereferenceable(16) %ec) #3
  invoke void @_ZN18OpenImageIO_v2_6_017basic_string_viewIcSt11char_traitsIcEEC2ERKS3_(ptr noundef nonnull align 8 dereferenceable(16) %agg.tmp, ptr noundef nonnull align 8 dereferenceable(16) %path)
          to label %invoke.cont unwind label %terminate.lpad

invoke.cont:                                      ; preds = %entry
  invoke void @_ZN18OpenImageIO_v2_6_06u8pathB5cxx11ENS_17basic_string_viewIcSt11char_traitsIcEEE(ptr sret(%"class.std::filesystem::__cxx11::path") align 8 %ref.tmp, ptr noundef %agg.tmp)
          to label %invoke.cont1 unwind label %terminate.lpad

invoke.cont1:                                     ; preds = %invoke.cont
  %call = call noundef zeroext i1 @_ZNSt10filesystem6existsERKNS_7__cxx114pathERSt10error_code(ptr noundef nonnull align 8 dereferenceable(40) %ref.tmp, ptr noundef nonnull align 8 dereferenceable(16) %ec) #3
  call void @_ZNSt10filesystem7__cxx114pathD2Ev(ptr noundef nonnull align 8 dereferenceable(40) %ref.tmp) #3
  ret i1 %call

terminate.lpad:                                   ; preds = %invoke.cont, %entry
  %0 = landingpad { ptr, i32 }
          catch ptr null
  %1 = extractvalue { ptr, i32 } %0, 0
  call void @__clang_call_terminate(ptr %1) #21
  unreachable
}