; Function Attrs: mustprogress nounwind uwtable
define noundef zeroext i1 @_ZN18OpenImageIO_v2_6_010Filesystem6existsENS_17basic_string_viewIcSt11char_traitsIcEEE(ptr nocapture noundef readonly %path) local_unnamed_addr #3 personality ptr @__gxx_personality_v0 {
entry:
  %ec = alloca %"class.std::error_code", align 8
  %ref.tmp = alloca %"class.std::filesystem::__cxx11::path", align 8
  store i32 0, ptr %ec, align 8
  %_M_cat.i = getelementptr inbounds i8, ptr %ec, i64 8
  %call.i = tail call noundef nonnull align 8 dereferenceable(8) ptr @_ZNSt3_V215system_categoryEv() #35
  store ptr %call.i, ptr %_M_cat.i, align 8
  %0 = load ptr, ptr %path, align 8
  %m_len.i.i = getelementptr inbounds i8, ptr %path, i64 8
  %1 = load i64, ptr %m_len.i.i, align 8
  %add.ptr.i.i = getelementptr inbounds i8, ptr %0, i64 %1
  invoke void @_ZNSt10filesystem7__cxx114pathC2IPKcS1_EET_S5_NS1_6formatE(ptr noundef nonnull align 8 dereferenceable(40) %ref.tmp, ptr noundef %0, ptr noundef %add.ptr.i.i, i8 noundef zeroext 2)
          to label %invoke.cont1 unwind label %terminate.lpad

invoke.cont1:                                     ; preds = %entry
  %call.i2 = call i64 @_ZNSt10filesystem6statusERKNS_7__cxx114pathERSt10error_code(ptr noundef nonnull align 8 dereferenceable(40) %ref.tmp, ptr noundef nonnull align 8 dereferenceable(16) %ec) #32
  %2 = and i64 %call.i2, 255
  %cmp.i.not.i = icmp eq i64 %2, 0
  br i1 %cmp.i.not.i, label %_ZNSt10filesystem6existsERKNS_7__cxx114pathERSt10error_code.exit, label %if.then.i

if.then.i:                                        ; preds = %invoke.cont1
  store i32 0, ptr %ec, align 8
  store ptr %call.i, ptr %_M_cat.i, align 8
  %cmp.i = icmp ne i64 %2, 255
  br label %_ZNSt10filesystem6existsERKNS_7__cxx114pathERSt10error_code.exit

_ZNSt10filesystem6existsERKNS_7__cxx114pathERSt10error_code.exit: ; preds = %invoke.cont1, %if.then.i
  %retval.0.i = phi i1 [ %cmp.i, %if.then.i ], [ false, %invoke.cont1 ]
  %_M_cmpts.i = getelementptr inbounds i8, ptr %ref.tmp, i64 32
  %3 = load ptr, ptr %_M_cmpts.i, align 8
  %cmp.not.i.i.i = icmp eq ptr %3, null
  br i1 %cmp.not.i.i.i, label %_ZNSt10filesystem7__cxx114pathD2Ev.exit, label %if.then.i.i.i

if.then.i.i.i:                                    ; preds = %_ZNSt10filesystem6existsERKNS_7__cxx114pathERSt10error_code.exit
  call void @_ZNKSt10filesystem7__cxx114path5_List13_Impl_deleterclEPNS2_5_ImplE(ptr noundef nonnull align 1 dereferenceable(1) %_M_cmpts.i, ptr noundef nonnull %3) #32
  br label %_ZNSt10filesystem7__cxx114pathD2Ev.exit

_ZNSt10filesystem7__cxx114pathD2Ev.exit:          ; preds = %_ZNSt10filesystem6existsERKNS_7__cxx114pathERSt10error_code.exit, %if.then.i.i.i
  store ptr null, ptr %_M_cmpts.i, align 8
  call void @_ZNSt7__cxx1112basic_stringIcSt11char_traitsIcESaIcEED1Ev(ptr noundef nonnull align 8 dereferenceable(32) %ref.tmp) #32
  ret i1 %retval.0.i

terminate.lpad:                                   ; preds = %entry
  %4 = landingpad { ptr, i32 }
          catch ptr null
  %5 = extractvalue { ptr, i32 } %4, 0
  call void @__clang_call_terminate(ptr %5) #34
  unreachable
}